; Function Attrs: nounwind sspstrong uwtable
define internal fastcc range(i32 -1, -2147483648) i32 @namev_to_backref_number(ptr noundef %0, i64 noundef %1, i64 noundef %2) unnamed_addr #2 {
  %4 = and i64 %2, 255
  %5 = icmp eq i64 %4, 12
  br i1 %5, label %RB_SYMBOL_P.exit.thread, label %6

6:                                                ; preds = %3
  %7 = icmp eq i64 %2, 0
  %8 = and i64 %2, 7
  %9 = icmp ne i64 %8, 0
  %10 = or i1 %7, %9
  br i1 %10, label %rbimpl_RB_TYPE_P_fastpath.exit.thread, label %RB_SYMBOL_P.exit

RB_SYMBOL_P.exit:                                 ; preds = %6
  %11 = inttoptr i64 %2 to ptr
  %12 = load i64, ptr %11, align 8, !tbaa !34
  %13 = and i64 %12, 31
  %14 = icmp eq i64 %13, 20
  br i1 %14, label %RB_SYMBOL_P.exit.thread, label %rbimpl_RB_TYPE_P_fastpath.exit

RB_SYMBOL_P.exit.thread:                          ; preds = %3, %RB_SYMBOL_P.exit
  %15 = tail call i64 @rb_sym2str(i64 noundef %2) #29
  br label %20

rbimpl_RB_TYPE_P_fastpath.exit:                   ; preds = %RB_SYMBOL_P.exit
  %16 = inttoptr i64 %2 to ptr
  %17 = load i64, ptr %16, align 8, !tbaa !34
  %18 = and i64 %17, 31
  %19 = icmp eq i64 %18, 5
  br i1 %19, label %20, label %rbimpl_RB_TYPE_P_fastpath.exit.thread

20:                                               ; preds = %rbimpl_RB_TYPE_P_fastpath.exit, %RB_SYMBOL_P.exit.thread
  %.013 = phi i64 [ %15, %RB_SYMBOL_P.exit.thread ], [ %2, %rbimpl_RB_TYPE_P_fastpath.exit ]
  %21 = icmp eq i64 %1, 4
  br i1 %21, label %.thread, label %22

22:                                               ; preds = %20
  %23 = inttoptr i64 %1 to ptr
  %24 = getelementptr inbounds nuw i8, ptr %23, i64 24
  %25 = load i64, ptr %24, align 8, !tbaa !52
  %26 = tail call ptr @rb_enc_compatible(i64 noundef %25, i64 noundef %.013) #29
  %.not = icmp eq ptr %26, null
  br i1 %.not, label %.thread, label %27

27:                                               ; preds = %22
  %28 = inttoptr i64 %.013 to ptr
  %29 = load i64, ptr %28, align 8, !tbaa !34, !noalias !301
  %30 = and i64 %29, 8192
  %.not.i.i = icmp eq i64 %30, 0
  %31 = getelementptr inbounds nuw i8, ptr %28, i64 24
  br i1 %.not.i.i, label %RSTRING_PTR.exit.thread, label %32

32:                                               ; preds = %27
  %.sroa.2.0.copyload.i = load ptr, ptr %31, align 8
  br label %RSTRING_PTR.exit.thread

RSTRING_PTR.exit.thread:                          ; preds = %27, %32
  %.sroa.5.0.i = phi ptr [ %.sroa.2.0.copyload.i, %32 ], [ %31, %27 ]
  %.sroa.3.0.in.i = getelementptr inbounds nuw i8, ptr %28, i64 16
  %.sroa.3.0.i = load i64, ptr %.sroa.3.0.in.i, align 8, !tbaa !18
  %33 = getelementptr i8, ptr %.sroa.5.0.i, i64 %.sroa.3.0.i
  %34 = getelementptr inbounds nuw i8, ptr %23, i64 16
  %35 = load ptr, ptr %34, align 8, !tbaa !37
  %36 = tail call i32 @onig_name_to_backref_number(ptr noundef %35, ptr noundef %.sroa.5.0.i, ptr noundef %33, ptr noundef %0) #29
  %37 = icmp slt i32 %36, 1
  br i1 %37, label %.thread, label %rbimpl_RB_TYPE_P_fastpath.exit.thread

.thread:                                          ; preds = %22, %20, %RSTRING_PTR.exit.thread
  tail call fastcc void @name_to_backref_error(i64 noundef %.013) #31
  unreachable

rbimpl_RB_TYPE_P_fastpath.exit.thread:            ; preds = %6, %RSTRING_PTR.exit.thread, %rbimpl_RB_TYPE_P_fastpath.exit
  %.0 = phi i32 [ -1, %rbimpl_RB_TYPE_P_fastpath.exit ], [ %36, %RSTRING_PTR.exit.thread ], [ -1, %6 ]
  ret i32 %.0
}